target datalayout = "e-m:e-p270:32:32-p271:32:32-p272:64:64-i64:64-i128:128-f80:128-n8:16:32:64-S128"
target triple = "x86_64-pc-linux-gnu"

%struct.ssl_method_st = type { i16, ptr }
%struct.ssl_ctx_st = type { ptr, %union.crypto_mutex_st, i16, i16, ptr, ptr, ptr, ptr, ptr, ptr, i64, ptr, ptr, i32, i32, i64, ptr, ptr, ptr, i32, ptr, ptr, ptr, ptr, ptr, ptr, %struct.crypto_ex_data_st, ptr, ptr, ptr, ptr, i32, i32, i32, ptr, ptr, ptr, i32, i32, [32 x i8], ptr, ptr, ptr, ptr, i16, ptr, ptr, [16 x i8], [16 x i8], [16 x i8], ptr, ptr, ptr, ptr, i8, ptr, ptr, ptr, ptr, ptr, ptr, ptr, i32, ptr, i64, ptr, ptr, ptr, i64, ptr, i64, ptr, ptr, i8, ptr, i32 }
%union.crypto_mutex_st = type { double, [48 x i8] }
%struct.crypto_ex_data_st = type { ptr }
%struct.ssl_cipher_preference_list_st = type { ptr, ptr }

@.str = private unnamed_addr constant [117 x i8] c"generated/home/dtcxzyw/WorkSpace/Projects/compilers/llvm-opt-benchmark/bench/libquic/libquic/boringssl/ssl/ssl_lib.c\00", align 1
@.str.1 = private unnamed_addr constant [4 x i8] c"ALL\00", align 1

; Function Attrs: nounwind uwtable
define hidden void @SSL_CTX_set_min_version(ptr noundef %0, i16 noundef zeroext %1) #0 {
  %3 = alloca ptr, align 8
  %4 = alloca i16, align 2
  store ptr %0, ptr %3, align 8, !tbaa !11
  store i16 %1, ptr %4, align 2, !tbaa !63
  %5 = load i16, ptr %4, align 2, !tbaa !63
  %6 = load ptr, ptr %3, align 8, !tbaa !11
  %7 = getelementptr inbounds nuw %struct.ssl_ctx_st, ptr %6, i32 0, i32 3
  store i16 %5, ptr %7, align 2, !tbaa !65
  ret void
}

; Function Attrs: nounwind uwtable
define hidden void @SSL_CTX_set_max_version(ptr noundef %0, i16 noundef zeroext %1) #0 {
  %3 = alloca ptr, align 8
  %4 = alloca i16, align 2
  store ptr %0, ptr %3, align 8, !tbaa !11
  store i16 %1, ptr %4, align 2, !tbaa !63
  %5 = load i16, ptr %4, align 2, !tbaa !63
  %6 = load ptr, ptr %3, align 8, !tbaa !11
  %7 = getelementptr inbounds nuw %struct.ssl_ctx_st, ptr %6, i32 0, i32 2
  store i16 %5, ptr %7, align 8, !tbaa !64
  ret void
}

; Function Attrs: nounwind uwtable
define hidden ptr @SSL_CTX_new(ptr noundef %0) #0 {
  %2 = alloca ptr, align 8
  %3 = alloca ptr, align 8
  %4 = alloca ptr, align 8
  %5 = alloca i32, align 4
  store ptr %0, ptr %3, align 8, !tbaa !6
  call void @llvm.lifetime.start.p0(i64 8, ptr %4) #8
  store ptr null, ptr %4, align 8, !tbaa !11
  %6 = load ptr, ptr %3, align 8, !tbaa !6
  %7 = icmp eq ptr %6, null
  br i1 %7, label %8, label %9

8:                                                ; preds = %1
  call void @ERR_put_error(i32 noundef 16, i32 noundef 0, i32 noundef 186, ptr noundef @.str, i32 noundef 222)
  store ptr null, ptr %2, align 8
  store i32 1, ptr %5, align 4
  br label %154

9:                                                ; preds = %1
  %10 = call i32 @SSL_get_ex_data_X509_STORE_CTX_idx()
  %11 = icmp slt i32 %10, 0
  br i1 %11, label %12, label %13

12:                                               ; preds = %9
  call void @ERR_put_error(i32 noundef 16, i32 noundef 0, i32 noundef 249, ptr noundef @.str, i32 noundef 227)
  br label %151

13:                                               ; preds = %9
  %14 = call noalias ptr @malloc(i64 noundef 672) #9
  store ptr %14, ptr %4, align 8, !tbaa !11
  %15 = load ptr, ptr %4, align 8, !tbaa !11
  %16 = icmp eq ptr %15, null
  br i1 %16, label %17, label %18

17:                                               ; preds = %13
  br label %151

18:                                               ; preds = %13
  %19 = load ptr, ptr %4, align 8, !tbaa !11
  call void @llvm.memset.p0.i64(ptr align 8 %19, i8 0, i64 672, i1 false)
  %20 = load ptr, ptr %3, align 8, !tbaa !6
  %21 = getelementptr inbounds nuw %struct.ssl_method_st, ptr %20, i32 0, i32 1
  %22 = load ptr, ptr %21, align 8, !tbaa !13
  %23 = load ptr, ptr %4, align 8, !tbaa !11
  %24 = getelementptr inbounds nuw %struct.ssl_ctx_st, ptr %23, i32 0, i32 0
  store ptr %22, ptr %24, align 8, !tbaa !17
  %25 = load ptr, ptr %4, align 8, !tbaa !11
  %26 = getelementptr inbounds nuw %struct.ssl_ctx_st, ptr %25, i32 0, i32 1
  call void @CRYPTO_MUTEX_init(ptr noundef %26)
  %27 = load ptr, ptr %4, align 8, !tbaa !11
  %28 = getelementptr inbounds nuw %struct.ssl_ctx_st, ptr %27, i32 0, i32 14
  store i32 2, ptr %28, align 4, !tbaa !37
  %29 = load ptr, ptr %4, align 8, !tbaa !11
  %30 = getelementptr inbounds nuw %struct.ssl_ctx_st, ptr %29, i32 0, i32 10
  store i64 20480, ptr %30, align 8, !tbaa !38
  %31 = load ptr, ptr %4, align 8, !tbaa !11
  %32 = getelementptr inbounds nuw %struct.ssl_ctx_st, ptr %31, i32 0, i32 15
  store i64 7200, ptr %32, align 8, !tbaa !39
  %33 = load ptr, ptr %4, align 8, !tbaa !11
  %34 = getelementptr inbounds nuw %struct.ssl_ctx_st, ptr %33, i32 0, i32 19
  store i32 1, ptr %34, align 8, !tbaa !40
  %35 = load ptr, ptr %4, align 8, !tbaa !11
  %36 = getelementptr inbounds nuw %struct.ssl_ctx_st, ptr %35, i32 0, i32 33
  store i32 102400, ptr %36, align 8, !tbaa !41
  %37 = load ptr, ptr %4, align 8, !tbaa !11
  %38 = getelementptr inbounds nuw %struct.ssl_ctx_st, ptr %37, i32 0, i32 37
  store i32 0, ptr %38, align 8, !tbaa !42
  %39 = call ptr @ssl_cert_new()
  %40 = load ptr, ptr %4, align 8, !tbaa !11
  %41 = getelementptr inbounds nuw %struct.ssl_ctx_st, ptr %40, i32 0, i32 34
  store ptr %39, ptr %41, align 8, !tbaa !43
  %42 = load ptr, ptr %4, align 8, !tbaa !11
  %43 = getelementptr inbounds nuw %struct.ssl_ctx_st, ptr %42, i32 0, i32 34
  %44 = load ptr, ptr %43, align 8, !tbaa !43
  %45 = icmp eq ptr %44, null
  br i1 %45, label %46, label %47

46:                                               ; preds = %18
  br label %151

47:                                               ; preds = %18
  %48 = call ptr @lh_new(ptr noundef @ssl_session_hash, ptr noundef @ssl_session_cmp)
  %49 = load ptr, ptr %4, align 8, !tbaa !11
  %50 = getelementptr inbounds nuw %struct.ssl_ctx_st, ptr %49, i32 0, i32 9
  store ptr %48, ptr %50, align 8, !tbaa !44
  %51 = load ptr, ptr %4, align 8, !tbaa !11
  %52 = getelementptr inbounds nuw %struct.ssl_ctx_st, ptr %51, i32 0, i32 9
  %53 = load ptr, ptr %52, align 8, !tbaa !44
  %54 = icmp eq ptr %53, null
  br i1 %54, label %55, label %56

55:                                               ; preds = %47
  br label %151

56:                                               ; preds = %47
  %57 = call ptr @X509_STORE_new()
  %58 = load ptr, ptr %4, align 8, !tbaa !11
  %59 = getelementptr inbounds nuw %struct.ssl_ctx_st, ptr %58, i32 0, i32 8
  store ptr %57, ptr %59, align 8, !tbaa !45
  %60 = load ptr, ptr %4, align 8, !tbaa !11
  %61 = getelementptr inbounds nuw %struct.ssl_ctx_st, ptr %60, i32 0, i32 8
  %62 = load ptr, ptr %61, align 8, !tbaa !45
  %63 = icmp eq ptr %62, null
  br i1 %63, label %64, label %65

64:                                               ; preds = %56
  br label %151

65:                                               ; preds = %56
  %66 = load ptr, ptr %4, align 8, !tbaa !11
  %67 = getelementptr inbounds nuw %struct.ssl_ctx_st, ptr %66, i32 0, i32 0
  %68 = load ptr, ptr %67, align 8, !tbaa !17
  %69 = load ptr, ptr %4, align 8, !tbaa !11
  %70 = getelementptr inbounds nuw %struct.ssl_ctx_st, ptr %69, i32 0, i32 4
  %71 = load ptr, ptr %4, align 8, !tbaa !11
  %72 = getelementptr inbounds nuw %struct.ssl_ctx_st, ptr %71, i32 0, i32 5
  %73 = call ptr @ssl_create_cipher_list(ptr noundef %68, ptr noundef %70, ptr noundef %72, ptr noundef @.str.1)
  %74 = load ptr, ptr %4, align 8, !tbaa !11
  %75 = getelementptr inbounds nuw %struct.ssl_ctx_st, ptr %74, i32 0, i32 4
  %76 = load ptr, ptr %75, align 8, !tbaa !46
  %77 = icmp eq ptr %76, null
  br i1 %77, label %86, label %78

78:                                               ; preds = %65
  %79 = load ptr, ptr %4, align 8, !tbaa !11
  %80 = getelementptr inbounds nuw %struct.ssl_ctx_st, ptr %79, i32 0, i32 4
  %81 = load ptr, ptr %80, align 8, !tbaa !46
  %82 = getelementptr inbounds nuw %struct.ssl_cipher_preference_list_st, ptr %81, i32 0, i32 0
  %83 = load ptr, ptr %82, align 8, !tbaa !47
  %84 = call i64 @sk_num(ptr noundef %83)
  %85 = icmp ule i64 %84, 0
  br i1 %85, label %86, label %87

86:                                               ; preds = %78, %65
  call void @ERR_put_error(i32 noundef 16, i32 noundef 0, i32 noundef 163, ptr noundef @.str, i32 noundef 270)
  br label %152

87:                                               ; preds = %78
  %88 = call ptr @X509_VERIFY_PARAM_new()
  %89 = load ptr, ptr %4, align 8, !tbaa !11
  %90 = getelementptr inbounds nuw %struct.ssl_ctx_st, ptr %89, i32 0, i32 41
  store ptr %88, ptr %90, align 8, !tbaa !49
  %91 = load ptr, ptr %4, align 8, !tbaa !11
  %92 = getelementptr inbounds nuw %struct.ssl_ctx_st, ptr %91, i32 0, i32 41
  %93 = load ptr, ptr %92, align 8, !tbaa !49
  %94 = icmp ne ptr %93, null
  br i1 %94, label %96, label %95

95:                                               ; preds = %87
  br label %151

96:                                               ; preds = %87
  %97 = call ptr @sk_new_null()
  %98 = load ptr, ptr %4, align 8, !tbaa !11
  %99 = getelementptr inbounds nuw %struct.ssl_ctx_st, ptr %98, i32 0, i32 30
  store ptr %97, ptr %99, align 8, !tbaa !50
  %100 = load ptr, ptr %4, align 8, !tbaa !11
  %101 = getelementptr inbounds nuw %struct.ssl_ctx_st, ptr %100, i32 0, i32 30
  %102 = load ptr, ptr %101, align 8, !tbaa !50
  %103 = icmp eq ptr %102, null
  br i1 %103, label %104, label %105

104:                                              ; preds = %96
  br label %151

105:                                              ; preds = %96
  %106 = load ptr, ptr %4, align 8, !tbaa !11
  %107 = getelementptr inbounds nuw %struct.ssl_ctx_st, ptr %106, i32 0, i32 26
  call void @CRYPTO_new_ex_data(ptr noundef %107)
  %108 = load ptr, ptr %4, align 8, !tbaa !11
  %109 = getelementptr inbounds nuw %struct.ssl_ctx_st, ptr %108, i32 0, i32 44
  store i16 16384, ptr %109, align 8, !tbaa !51
  %110 = load ptr, ptr %4, align 8, !tbaa !11
  %111 = getelementptr inbounds nuw %struct.ssl_ctx_st, ptr %110, i32 0, i32 47
  %112 = getelementptr inbounds [16 x i8], ptr %111, i64 0, i64 0
  %113 = call i32 @RAND_bytes(ptr noundef %112, i64 noundef 16)
  %114 = icmp ne i32 %113, 0
  br i1 %114, label %115, label %127

115:                                              ; preds = %105
  %116 = load ptr, ptr %4, align 8, !tbaa !11
  %117 = getelementptr inbounds nuw %struct.ssl_ctx_st, ptr %116, i32 0, i32 48
  %118 = getelementptr inbounds [16 x i8], ptr %117, i64 0, i64 0
  %119 = call i32 @RAND_bytes(ptr noundef %118, i64 noundef 16)
  %120 = icmp ne i32 %119, 0
  br i1 %120, label %121, label %127

121:                                              ; preds = %115
  %122 = load ptr, ptr %4, align 8, !tbaa !11
  %123 = getelementptr inbounds nuw %struct.ssl_ctx_st, ptr %122, i32 0, i32 49
  %124 = getelementptr inbounds [16 x i8], ptr %123, i64 0, i64 0
  %125 = call i32 @RAND_bytes(ptr noundef %124, i64 noundef 16)
  %126 = icmp ne i32 %125, 0
  br i1 %126, label %134, label %127

127:                                              ; preds = %121, %115, %105
  %128 = load ptr, ptr %4, align 8, !tbaa !11
  %129 = getelementptr inbounds nuw %struct.ssl_ctx_st, ptr %128, i32 0, i32 31
  %130 = load i32, ptr %129, align 8, !tbaa !52
  %131 = zext i32 %130 to i64
  %132 = or i64 %131, 16384
  %133 = trunc i64 %132 to i32
  store i32 %133, ptr %129, align 8, !tbaa !52
  br label %134

134:                                              ; preds = %127, %121
  %135 = load ptr, ptr %3, align 8, !tbaa !6
  %136 = getelementptr inbounds nuw %struct.ssl_method_st, ptr %135, i32 0, i32 0
  %137 = load i16, ptr %136, align 8, !tbaa !53
  %138 = zext i16 %137 to i32
  %139 = icmp ne i32 %138, 0
  br i1 %139, label %140, label %149

140:                                              ; preds = %134
  %141 = load ptr, ptr %4, align 8, !tbaa !11
  %142 = load ptr, ptr %3, align 8, !tbaa !6
  %143 = getelementptr inbounds nuw %struct.ssl_method_st, ptr %142, i32 0, i32 0
  %144 = load i16, ptr %143, align 8, !tbaa !53
  call void @SSL_CTX_set_max_version(ptr noundef %141, i16 noundef zeroext %144)
  %145 = load ptr, ptr %4, align 8, !tbaa !11
  %146 = load ptr, ptr %3, align 8, !tbaa !6
  %147 = getelementptr inbounds nuw %struct.ssl_method_st, ptr %146, i32 0, i32 0
  %148 = load i16, ptr %147, align 8, !tbaa !53
  call void @SSL_CTX_set_min_version(ptr noundef %145, i16 noundef zeroext %148)
  br label %149

149:                                              ; preds = %140, %134
  %150 = load ptr, ptr %4, align 8, !tbaa !11
  store ptr %150, ptr %2, align 8
  store i32 1, ptr %5, align 4
  br label %154

151:                                              ; preds = %104, %95, %64, %55, %46, %17, %12
  call void @ERR_put_error(i32 noundef 16, i32 noundef 0, i32 noundef 65, ptr noundef @.str, i32 noundef 305)
  br label %152

152:                                              ; preds = %151, %86
  %153 = load ptr, ptr %4, align 8, !tbaa !11
  call void @SSL_CTX_free(ptr noundef %153)
  store ptr null, ptr %2, align 8
  store i32 1, ptr %5, align 4
  br label %154

154:                                              ; preds = %152, %149, %8
  call void @llvm.lifetime.end.p0(i64 8, ptr %4) #8
  %155 = load ptr, ptr %2, align 8
  ret ptr %155
}