; Function Attrs: nounwind uwtable
define hidden noundef ptr @SSL_CTX_new(ptr noundef readonly captures(address_is_null) %0) local_unnamed_addr #0 {
  %2 = icmp eq ptr %0, null
  br i1 %2, label %3, label %4

3:                                                ; preds = %1
  tail call void @ERR_put_error(i32 noundef 16, i32 noundef 0, i32 noundef 186, ptr noundef nonnull @.str, i32 noundef 222) #21
  br label %72

4:                                                ; preds = %1
  %5 = tail call i32 @SSL_get_ex_data_X509_STORE_CTX_idx() #21
  %6 = icmp slt i32 %5, 0
  br i1 %6, label %7, label %8

7:                                                ; preds = %4
  tail call void @ERR_put_error(i32 noundef 16, i32 noundef 0, i32 noundef 249, ptr noundef nonnull @.str, i32 noundef 227) #21
  br label %70

8:                                                ; preds = %4
  %calloc = tail call dereferenceable_or_null(672) ptr @calloc(i64 1, i64 672)
  %9 = icmp eq ptr %calloc, null
  br i1 %9, label %70, label %10

10:                                               ; preds = %8
  %11 = getelementptr inbounds nuw i8, ptr %0, i64 8
  %12 = load ptr, ptr %11, align 8, !tbaa !6
  store ptr %12, ptr %calloc, align 8, !tbaa !13
  %13 = getelementptr inbounds nuw i8, ptr %calloc, i64 8
  tail call void @CRYPTO_MUTEX_init(ptr noundef nonnull %13) #21
  %14 = getelementptr inbounds nuw i8, ptr %calloc, i64 148
  store i32 2, ptr %14, align 4, !tbaa !33
  %15 = getelementptr inbounds nuw i8, ptr %calloc, i64 120
  store i64 20480, ptr %15, align 8, !tbaa !34
  %16 = getelementptr inbounds nuw i8, ptr %calloc, i64 152
  store i64 7200, ptr %16, align 8, !tbaa !35
  %17 = getelementptr inbounds nuw i8, ptr %calloc, i64 184
  store i32 1, ptr %17, align 8, !tbaa !36
  %18 = getelementptr inbounds nuw i8, ptr %calloc, i64 288
  store i32 102400, ptr %18, align 8, !tbaa !37
  %19 = getelementptr inbounds nuw i8, ptr %calloc, i64 320
  store i32 0, ptr %19, align 8, !tbaa !38
  %20 = tail call ptr @ssl_cert_new() #21
  %21 = getelementptr inbounds nuw i8, ptr %calloc, i64 296
  store ptr %20, ptr %21, align 8, !tbaa !39
  %22 = icmp eq ptr %20, null
  br i1 %22, label %70, label %23

23:                                               ; preds = %10
  %24 = tail call ptr @lh_new(ptr noundef nonnull @ssl_session_hash, ptr noundef nonnull @ssl_session_cmp) #21
  %25 = getelementptr inbounds nuw i8, ptr %calloc, i64 112
  store ptr %24, ptr %25, align 8, !tbaa !40
  %26 = icmp eq ptr %24, null
  br i1 %26, label %70, label %27

27:                                               ; preds = %23
  %28 = tail call ptr @X509_STORE_new() #21
  %29 = getelementptr inbounds nuw i8, ptr %calloc, i64 104
  store ptr %28, ptr %29, align 8, !tbaa !41
  %30 = icmp eq ptr %28, null
  br i1 %30, label %70, label %31

31:                                               ; preds = %27
  %32 = load ptr, ptr %calloc, align 8, !tbaa !13
  %33 = getelementptr inbounds nuw i8, ptr %calloc, i64 72
  %34 = getelementptr inbounds nuw i8, ptr %calloc, i64 80
  %35 = tail call ptr @ssl_create_cipher_list(ptr noundef %32, ptr noundef nonnull %33, ptr noundef nonnull %34, ptr noundef nonnull @.str.1) #21
  %36 = load ptr, ptr %33, align 8, !tbaa !42
  %37 = icmp eq ptr %36, null
  br i1 %37, label %42, label %38

38:                                               ; preds = %31
  %39 = load ptr, ptr %36, align 8, !tbaa !43
  %40 = tail call i64 @sk_num(ptr noundef %39) #21
  %41 = icmp eq i64 %40, 0
  br i1 %41, label %42, label %43

42:                                               ; preds = %38, %31
  tail call void @ERR_put_error(i32 noundef 16, i32 noundef 0, i32 noundef 163, ptr noundef nonnull @.str, i32 noundef 270) #21
  br label %71

43:                                               ; preds = %38
  %44 = tail call ptr @X509_VERIFY_PARAM_new() #21
  %45 = getelementptr inbounds nuw i8, ptr %calloc, i64 368
  store ptr %44, ptr %45, align 8, !tbaa !45
  %.not = icmp eq ptr %44, null
  br i1 %.not, label %70, label %46

46:                                               ; preds = %43
  %47 = tail call ptr @sk_new_null() #21
  %48 = getelementptr inbounds nuw i8, ptr %calloc, i64 272
  store ptr %47, ptr %48, align 8, !tbaa !46
  %49 = icmp eq ptr %47, null
  br i1 %49, label %70, label %50

50:                                               ; preds = %46
  %51 = getelementptr inbounds nuw i8, ptr %calloc, i64 240
  tail call void @CRYPTO_new_ex_data(ptr noundef nonnull %51) #21
  %52 = getelementptr inbounds nuw i8, ptr %calloc, i64 392
  store i16 16384, ptr %52, align 8, !tbaa !47
  %53 = getelementptr inbounds nuw i8, ptr %calloc, i64 416
  %54 = tail call i32 @RAND_bytes(ptr noundef nonnull %53, i64 noundef 16) #21
  %.not46 = icmp eq i32 %54, 0
  br i1 %.not46, label %61, label %55

55:                                               ; preds = %50
  %56 = getelementptr inbounds nuw i8, ptr %calloc, i64 432
  %57 = tail call i32 @RAND_bytes(ptr noundef nonnull %56, i64 noundef 16) #21
  %.not47 = icmp eq i32 %57, 0
  br i1 %.not47, label %61, label %58

58:                                               ; preds = %55
  %59 = getelementptr inbounds nuw i8, ptr %calloc, i64 448
  %60 = tail call i32 @RAND_bytes(ptr noundef nonnull %59, i64 noundef 16) #21
  %.not48 = icmp eq i32 %60, 0
  br i1 %.not48, label %61, label %65

61:                                               ; preds = %58, %55, %50
  %62 = getelementptr inbounds nuw i8, ptr %calloc, i64 280
  %63 = load i32, ptr %62, align 8, !tbaa !48
  %64 = or i32 %63, 16384
  store i32 %64, ptr %62, align 8, !tbaa !48
  br label %65

65:                                               ; preds = %61, %58
  %66 = load i16, ptr %0, align 8, !tbaa !49
  %.not49 = icmp eq i16 %66, 0
  br i1 %.not49, label %72, label %67

67:                                               ; preds = %65
  %68 = getelementptr inbounds nuw i8, ptr %calloc, i64 64
  store i16 %66, ptr %68, align 8, !tbaa !50
  %69 = getelementptr inbounds nuw i8, ptr %calloc, i64 66
  store i16 %66, ptr %69, align 2, !tbaa !51
  br label %72

70:                                               ; preds = %46, %43, %27, %23, %10, %8, %7
  %.0 = phi ptr [ null, %7 ], [ null, %8 ], [ %calloc, %10 ], [ %calloc, %23 ], [ %calloc, %27 ], [ %calloc, %46 ], [ %calloc, %43 ]
  tail call void @ERR_put_error(i32 noundef 16, i32 noundef 0, i32 noundef 65, ptr noundef nonnull @.str, i32 noundef 305) #21
  br label %71

71:                                               ; preds = %70, %42
  %.1 = phi ptr [ %.0, %70 ], [ %calloc, %42 ]
  tail call void @SSL_CTX_free(ptr noundef %.1)
  br label %72

72:                                               ; preds = %65, %67, %71, %3
  %.041 = phi ptr [ null, %3 ], [ null, %71 ], [ %calloc, %67 ], [ %calloc, %65 ]
  ret ptr %.041
}